; Function Attrs: mustprogress uwtable
define void @_ZN7rocksdb22HistogramWindowingImpl5ClearEv(ptr noundef nonnull align 8 dereferenceable(1032) %this) unnamed_addr #0 align 2 personality ptr @__gxx_personality_v0 {
entry:
  %mutex_ = getelementptr inbounds i8, ptr %this, i64 24
  %call1.i.i.i = tail call noundef i32 @pthread_mutex_lock(ptr noundef nonnull %mutex_) #11
  %tobool.not.i.i = icmp eq i32 %call1.i.i.i, 0
  br i1 %tobool.not.i.i, label %_ZNSt10lock_guardISt5mutexEC2ERS0_.exit, label %if.then.i.i

if.then.i.i:                                      ; preds = %entry
  tail call void @_ZSt20__throw_system_errori(i32 noundef %call1.i.i.i) #14
  unreachable

_ZNSt10lock_guardISt5mutexEC2ERS0_.exit:          ; preds = %entry
  %stats_ = getelementptr inbounds i8, ptr %this, i64 64
  invoke void @_ZN7rocksdb13HistogramStat5ClearEv(ptr noundef nonnull align 8 dereferenceable(920) %stats_)
          to label %for.cond.preheader unwind label %lpad.loopexit.split-lp

for.cond.preheader:                               ; preds = %_ZNSt10lock_guardISt5mutexEC2ERS0_.exit
  %num_windows_ = getelementptr inbounds i8, ptr %this, i64 1008
  %0 = load i64, ptr %num_windows_, align 8
  %cmp14.not = icmp eq i64 %0, 0
  br i1 %cmp14.not, label %for.end, label %for.body.lr.ph

for.body.lr.ph:                                   ; preds = %for.cond.preheader
  %window_stats_ = getelementptr inbounds i8, ptr %this, i64 984
  br label %for.body

for.body:                                         ; preds = %for.body.lr.ph, %for.inc
  %i.015 = phi i64 [ 0, %for.body.lr.ph ], [ %inc, %for.inc ]
  %1 = load ptr, ptr %window_stats_, align 8
  %arrayidx.i = getelementptr inbounds %"struct.rocksdb::HistogramStat", ptr %1, i64 %i.015
  invoke void @_ZN7rocksdb13HistogramStat5ClearEv(ptr noundef nonnull align 8 dereferenceable(920) %arrayidx.i)
          to label %for.inc unwind label %lpad.loopexit

for.inc:                                          ; preds = %for.body
  %inc = add nuw i64 %i.015, 1
  %2 = load i64, ptr %num_windows_, align 8
  %cmp = icmp ult i64 %inc, %2
  br i1 %cmp, label %for.body, label %for.end, !llvm.loop !4

lpad.loopexit:                                    ; preds = %for.body
  %lpad.loopexit12 = landingpad { ptr, i32 }
          cleanup
  br label %lpad

lpad.loopexit.split-lp:                           ; preds = %_ZNSt10lock_guardISt5mutexEC2ERS0_.exit, %for.end
  %lpad.loopexit.split-lp13 = landingpad { ptr, i32 }
          cleanup
  br label %lpad

lpad:                                             ; preds = %lpad.loopexit.split-lp, %lpad.loopexit
  %lpad.phi = phi { ptr, i32 } [ %lpad.loopexit12, %lpad.loopexit ], [ %lpad.loopexit.split-lp13, %lpad.loopexit.split-lp ]
  %call1.i.i.i9 = tail call noundef i32 @pthread_mutex_unlock(ptr noundef nonnull %mutex_) #11
  resume { ptr, i32 } %lpad.phi

for.end:                                          ; preds = %for.inc, %for.cond.preheader
  %current_window_ = getelementptr inbounds i8, ptr %this, i64 992
  store atomic i64 0, ptr %current_window_ monotonic, align 8
  %clock_ = getelementptr inbounds i8, ptr %this, i64 8
  %3 = load ptr, ptr %clock_, align 8
  %vtable = load ptr, ptr %3, align 8
  %vfn = getelementptr inbounds i8, ptr %vtable, i64 152
  %4 = load ptr, ptr %vfn, align 8
  %call6 = invoke noundef i64 %4(ptr noundef nonnull align 8 dereferenceable(32) %3)
          to label %invoke.cont5 unwind label %lpad.loopexit.split-lp

invoke.cont5:                                     ; preds = %for.end
  %last_swap_time_ = getelementptr inbounds i8, ptr %this, i64 1000
  store atomic i64 %call6, ptr %last_swap_time_ monotonic, align 8
  %call1.i.i.i10 = tail call noundef i32 @pthread_mutex_unlock(ptr noundef nonnull %mutex_) #11
  ret void
}